Certificate:
    Data:
        Version: 3 (0x2)
        Serial Number:
            d8:d3:e3:a6:cb:e3:cd:21
        Signature Algorithm: sha256WithRSAEncryption
        Issuer: C=FI, O=w1.fi, CN=Root CA
        Validity
            Not Before: Aug 20 20:37:01 2021 GMT
            Not After : Aug 20 20:37:01 2022 GMT
        Subject: C=FI, O=w1.fi, CN=server6.w1.fi
        Subject Public Key Info:
            Public Key Algorithm: rsaEncryption
                RSA Public-Key: (1024 bit)
                Modulus:
                    00:ca:30:1e:fd:13:6a:02:28:51:9a:0e:a9:1e:72:
                    7e:e7:5a:c8:cb:0c:7e:8a:99:81:8d:05:b3:09:b0:
                    a9:86:e7:ae:44:fa:e0:c7:ee:f3:18:b4:31:65:e3:
                    05:6f:66:4e:e3:e4:85:81:9b:47:7f:5f:b5:16:2b:
                    b0:59:91:9c:c5:55:d3:d3:ca:2c:81:ce:f0:27:a8:
                    54:de:0e:4f:d8:f0:11:bd:0b:10:56:38:26:df:a9:
                    3a:95:15:93:a6:16:ed:d2:1e:b4:b5:c0:a8:61:8e:
                    ae:10:04:fd:e6:26:ca:4a:0d:90:4b:b9:ac:c9:94:
                    f2:b1:6b:97:6b:60:24:ea:bd
                Exponent: 65537 (0x10001)
        X509v3 extensions:
            X509v3 Basic Constraints: 
                CA:FALSE
            X509v3 Subject Key Identifier: 
                C7:C6:EF:F5:61:D2:A0:08:81:6A:6B:44:2C:F5:72:F7:DA:DE:5B:B9
            X509v3 Authority Key Identifier: 
                keyid:B8:92:DE:FD:8A:18:B3:30:C3:9F:55:F3:33:5D:B4:C8:29:8A:41:14

            Authority Information Access: 
                OCSP - URI:http://server.w1.fi:8888/

            X509v3 Extended Key Usage: 
                TLS Web Client Authentication, TLS Web Server Authentication
    Signature Algorithm: sha256WithRSAEncryption
         4b:cf:e0:e4:e6:26:9c:f4:fe:7a:2f:9a:87:3d:2f:5d:f7:f1:
         d6:39:4e:1e:29:55:c6:42:63:57:ff:02:9c:0a:1f:16:93:68:
         db:1d:0c:73:52:b1:a2:3f:97:5f:37:96:aa:6e:39:80:13:4f:
         1d:0b:ec:99:09:2d:14:c1:30:79:7c:64:52:3c:a6:e1:98:50:
         b4:f0:73:8a:ad:1f:21:15:a4:25:c0:87:36:11:c9:49:45:d0:
         34:08:52:f9:f1:c9:c9:f3:05:39:c5:86:1e:39:7d:61:03:df:
         46:98:42:43:05:ae:22:a3:21:b2:8a:0d:73:bb:62:1b:56:5b:
         7a:2a
-----BEGIN CERTIFICATE-----
MIIChzCCAfCgAwIBAgIJANjT46bL480hMA0GCSqGSIb3DQEBCwUAMC8xCzAJBgNV
BAYTAkZJMQ4wDAYDVQQKDAV3MS5maTEQMA4GA1UEAwwHUm9vdCBDQTAeFw0yMTA4
MjAyMDM3MDFaFw0yMjA4MjAyMDM3MDFaMDUxCzAJBgNVBAYTAkZJMQ4wDAYDVQQK
DAV3MS5maTEWMBQGA1UEAwwNc2VydmVyNi53MS5maTCBnzANBgkqhkiG9w0BAQEF
AAOBjQAwgYkCgYEAyjAe/RNqAihRmg6pHnJ+51rIywx+ipmBjQWzCbCphueuRPrg
x+7zGLQxZeMFb2ZO4+SFgZtHf1+1FiuwWZGcxVXT08osgc7wJ6hU3g5P2PARvQsQ
Vjgm36k6lRWTphbt0h60tcCoYY6uEAT95ibKSg2QS7msyZTysWuXa2Ak6r0CAwEA
AaOBpDCBoTAJBgNVHRMEAjAAMB0GA1UdDgQWBBTHxu/1YdKgCIFqa0Qs9XL32t5b
uTAfBgNVHSMEGDAWgBS4kt79ihizMMOfVfMzXbTIKYpBFDA1BggrBgEFBQcBAQQp
MCcwJQYIKwYBBQUHMAGGGWh0dHA6Ly9zZXJ2ZXIudzEuZmk6ODg4OC8wHQYDVR0l
BBYwFAYIKwYBBQUHAwIGCCsGAQUFBwMBMA0GCSqGSIb3DQEBCwUAA4GBAEvP4OTm
Jpz0/novmoc9L1338dY5Th4pVcZCY1f/ApwKHxaTaNsdDHNSsaI/l183lqpuOYAT
Tx0L7JkJLRTBMHl8ZFI8puGYULTwc4qtHyEVpCXAhzYRyUlF0DQIUvnxycnzBTnF
hh45fWED30aYQkMFriKjIbKKDXO7YhtWW3oq
-----END CERTIFICATE-----
