Certificate:
    Data:
        Version: 3 (0x2)
        Serial Number:
            d8:d3:e3:a6:cb:e3:cd:6c
        Signature Algorithm: sha256WithRSAEncryption
        Issuer: C=FI, L=Tuusula, O=w1.fi, CN=Root CA
        Validity
            Not Before: Aug 24 00:51:59 2021 GMT
            Not After : Aug 24 00:51:59 2022 GMT
        Subject: C=FI, O=w1.fi, CN=server5.w1.fi
        Subject Public Key Info:
            Public Key Algorithm: rsaEncryption
                RSA Public-Key: (2048 bit)
                Modulus:
                    00:a5:94:60:80:b8:c8:61:18:8c:02:9d:dc:cc:c4:
                    74:d1:17:b5:3b:47:9c:38:0f:3b:92:74:fb:ea:27:
                    45:44:8a:9a:2a:4d:10:25:8e:77:ce:1a:09:c9:73:
                    19:fe:dc:70:36:5e:8c:fa:8f:4c:84:bb:f7:72:e4:
                    94:4f:fc:47:2a:7d:89:92:a3:2b:5a:69:9c:c8:5a:
                    10:39:32:61:7d:0a:78:19:b4:36:eb:ac:4c:d6:af:
                    75:00:14:4e:15:2f:5f:83:ee:62:f5:ac:7b:0c:81:
                    ba:a2:08:36:7b:f0:ef:63:31:62:fb:86:a6:cf:da:
                    36:83:44:8d:75:28:b6:e4:10:f3:32:dd:8a:6c:5b:
                    ee:4f:f1:1e:53:0b:13:7c:c7:bc:f7:9e:32:80:1e:
                    63:3e:92:75:2f:c5:21:5e:f0:2a:ac:e2:34:e4:17:
                    b2:34:f7:e8:2a:12:8a:21:b8:03:e7:b6:d8:f8:32:
                    b5:fe:71:45:52:98:de:b9:3d:41:f5:90:a5:76:83:
                    c1:18:ca:50:5d:2c:52:8b:6e:4f:a7:5b:bb:d8:e3:
                    14:25:70:de:d1:c7:9d:59:cf:24:46:c7:f5:6e:6f:
                    83:66:ed:1b:1d:3e:51:04:94:67:64:df:51:22:3c:
                    c0:e1:24:0a:37:6a:dc:6a:8b:fd:45:5b:96:2d:03:
                    ac:63
                Exponent: 65537 (0x10001)
        X509v3 extensions:
            X509v3 Basic Constraints: 
                CA:FALSE
            X509v3 Subject Key Identifier: 
                32:9F:9F:30:24:73:73:CB:8D:53:3A:80:23:EB:5B:5D:4C:DD:06:01
            X509v3 Authority Key Identifier: 
                keyid:A4:FD:B9:39:1B:81:B3:AA:EB:88:1D:D4:81:A9:B5:11:70:CC:A7:E1

            Authority Information Access: 
                OCSP - URI:http://server.w1.fi:8888/

            X509v3 Extended Key Usage: 
                TLS Web Client Authentication
    Signature Algorithm: sha256WithRSAEncryption
         53:da:da:7a:23:03:b0:13:aa:4c:1e:39:be:b2:38:e2:19:c1:
         21:77:a6:92:23:63:a8:64:63:11:5a:f6:19:36:a1:35:10:5f:
         05:27:c3:85:6b:0a:66:f5:80:9d:86:cf:1a:0e:90:c6:a7:b7:
         ee:74:53:9b:8c:70:24:e5:26:0c:80:08:67:bf:51:b7:fc:7f:
         d3:eb:b4:41:59:87:0f:6f:f5:91:1d:d3:2d:00:a7:bc:11:b7:
         8f:bb:49:9c:86:7c:5c:66:bc:5c:50:80:7d:48:b1:20:d2:05:
         e4:f8:bd:02:c7:a2:43:10:39:f1:37:f6:d0:99:31:d2:7f:5f:
         09:6a:10:5b:99:87:24:3b:bc:f1:c4:7c:ca:bf:8f:6b:e5:9d:
         aa:d1:a6:a1:23:38:60:16:e1:4d:d6:e2:0d:9c:c8:ad:85:b3:
         2c:17:10:02:a6:47:d8:3e:9e:ce:50:82:f7:92:ce:21:44:76:
         eb:b1:ef:11:b9:19:7c:33:fd:f6:50:4e:d7:69:64:a3:c6:6e:
         89:25:4a:de:cc:61:a9:95:4d:67:f9:4e:d3:07:0a:cb:f1:66:
         66:1f:2e:6a:04:59:14:ee:6f:d0:e9:02:25:15:f4:4f:de:8d:
         70:5a:4f:8b:3f:c9:bd:3e:20:5d:fd:c2:fc:83:78:23:3b:24:
         c9:c6:94:ca
-----BEGIN CERTIFICATE-----
MIIDlDCCAnygAwIBAgIJANjT46bL481sMA0GCSqGSIb3DQEBCwUAMEExCzAJBgNV
BAYTAkZJMRAwDgYDVQQHDAdUdXVzdWxhMQ4wDAYDVQQKDAV3MS5maTEQMA4GA1UE
AwwHUm9vdCBDQTAeFw0yMTA4MjQwMDUxNTlaFw0yMjA4MjQwMDUxNTlaMDUxCzAJ
BgNVBAYTAkZJMQ4wDAYDVQQKDAV3MS5maTEWMBQGA1UEAwwNc2VydmVyNS53MS5m
aTCCASIwDQYJKoZIhvcNAQEBBQADggEPADCCAQoCggEBAKWUYIC4yGEYjAKd3MzE
dNEXtTtHnDgPO5J0++onRUSKmipNECWOd84aCclzGf7ccDZejPqPTIS793LklE/8
Ryp9iZKjK1ppnMhaEDkyYX0KeBm0NuusTNavdQAUThUvX4PuYvWsewyBuqIINnvw
72MxYvuGps/aNoNEjXUotuQQ8zLdimxb7k/xHlMLE3zHvPeeMoAeYz6SdS/FIV7w
KqziNOQXsjT36CoSiiG4A+e22Pgytf5xRVKY3rk9QfWQpXaDwRjKUF0sUotuT6db
u9jjFCVw3tHHnVnPJEbH9W5vg2btGx0+UQSUZ2TfUSI8wOEkCjdq3GqL/UVbli0D
rGMCAwEAAaOBmjCBlzAJBgNVHRMEAjAAMB0GA1UdDgQWBBQyn58wJHNzy41TOoAj
61tdTN0GATAfBgNVHSMEGDAWgBSk/bk5G4GzquuIHdSBqbURcMyn4TA1BggrBgEF
BQcBAQQpMCcwJQYIKwYBBQUHMAGGGWh0dHA6Ly9zZXJ2ZXIudzEuZmk6ODg4OC8w
EwYDVR0lBAwwCgYIKwYBBQUHAwIwDQYJKoZIhvcNAQELBQADggEBAFPa2nojA7AT
qkweOb6yOOIZwSF3ppIjY6hkYxFa9hk2oTUQXwUnw4VrCmb1gJ2GzxoOkMant+50
U5uMcCTlJgyACGe/Ubf8f9PrtEFZhw9v9ZEd0y0Ap7wRt4+7SZyGfFxmvFxQgH1I
sSDSBeT4vQLHokMQOfE39tCZMdJ/XwlqEFuZhyQ7vPHEfMq/j2vlnarRpqEjOGAW
4U3W4g2cyK2FsywXEAKmR9g+ns5QgveSziFEduux7xG5GXwz/fZQTtdpZKPGbokl
St7MYamVTWf5TtMHCsvxZmYfLmoEWRTub9DpAiUV9E/ejXBaT4s/yb0+IF39wvyD
eCM7JMnGlMo=
-----END CERTIFICATE-----
