Certificate:
    Data:
        Version: 3 (0x2)
        Serial Number:
            d8:d3:e3:a6:cb:e3:cd:1f
        Signature Algorithm: sha256WithRSAEncryption
        Issuer: C=FI, O=w1.fi, CN=Root CA
        Validity
            Not Before: Aug 20 20:37:00 2021 GMT
            Not After : Aug 20 20:37:00 2022 GMT
        Subject: C=FI, O=w1.fi, CN=server3.w1.fi
        Subject Public Key Info:
            Public Key Algorithm: rsaEncryption
                RSA Public-Key: (1024 bit)
                Modulus:
                    00:db:fc:0f:a1:48:87:68:86:c4:9e:7a:f8:18:28:
                    77:6d:a3:58:0f:db:be:6b:d4:43:43:c4:ba:17:37:
                    9b:a8:ff:96:a2:73:14:13:1c:ae:19:0f:81:54:35:
                    10:64:94:e3:64:65:be:9b:0b:16:d2:9e:92:98:77:
                    87:e2:9a:99:fc:1d:57:0c:8a:0d:4c:21:2f:ae:67:
                    d7:63:61:eb:91:5b:58:2f:ad:67:66:65:e4:83:07:
                    ca:6a:36:a5:e6:20:f6:5c:99:27:db:63:e5:86:d8:
                    2b:7c:1d:90:44:81:22:21:77:0a:03:05:c3:eb:63:
                    61:b3:4c:32:c0:87:87:3a:47
                Exponent: 65537 (0x10001)
        X509v3 extensions:
            X509v3 Basic Constraints: 
                CA:FALSE
            X509v3 Subject Key Identifier: 
                8E:9A:4F:4D:46:AD:59:AC:7F:4C:9C:BE:6D:5B:D7:99:63:8D:C7:70
            X509v3 Authority Key Identifier: 
                keyid:B8:92:DE:FD:8A:18:B3:30:C3:9F:55:F3:33:5D:B4:C8:29:8A:41:14

            Authority Information Access: 
                OCSP - URI:http://server.w1.fi:8888/

            X509v3 Extended Key Usage: 
                TLS Web Server Authentication
    Signature Algorithm: sha256WithRSAEncryption
         8a:90:14:a4:7c:21:e5:fa:ca:d1:ed:9a:f3:f9:48:c1:76:44:
         f5:27:e7:ca:70:ab:dd:be:8d:cb:47:db:90:5c:17:0f:66:53:
         08:27:3b:79:fb:70:cc:be:7d:55:66:9f:1a:2f:20:45:cf:ad:
         25:43:71:ab:26:b7:ba:e9:59:e3:e4:4a:38:9d:17:79:59:d8:
         8d:f9:c8:b3:67:34:a2:6b:5f:cd:d6:48:ea:78:58:f5:c2:aa:
         af:6e:3a:1a:e7:9c:33:05:9f:6a:8f:ee:0a:b6:ad:09:fd:07:
         93:4b:25:fc:d4:45:80:66:02:d0:fb:7c:b8:da:5d:f7:02:7c:
         f2:99
-----BEGIN CERTIFICATE-----
MIICfTCCAeagAwIBAgIJANjT46bL480fMA0GCSqGSIb3DQEBCwUAMC8xCzAJBgNV
BAYTAkZJMQ4wDAYDVQQKDAV3MS5maTEQMA4GA1UEAwwHUm9vdCBDQTAeFw0yMTA4
MjAyMDM3MDBaFw0yMjA4MjAyMDM3MDBaMDUxCzAJBgNVBAYTAkZJMQ4wDAYDVQQK
DAV3MS5maTEWMBQGA1UEAwwNc2VydmVyMy53MS5maTCBnzANBgkqhkiG9w0BAQEF
AAOBjQAwgYkCgYEA2/wPoUiHaIbEnnr4GCh3baNYD9u+a9RDQ8S6FzebqP+WonMU
ExyuGQ+BVDUQZJTjZGW+mwsW0p6SmHeH4pqZ/B1XDIoNTCEvrmfXY2HrkVtYL61n
ZmXkgwfKajal5iD2XJkn22PlhtgrfB2QRIEiIXcKAwXD62Nhs0wywIeHOkcCAwEA
AaOBmjCBlzAJBgNVHRMEAjAAMB0GA1UdDgQWBBSOmk9NRq1ZrH9MnL5tW9eZY43H
cDAfBgNVHSMEGDAWgBS4kt79ihizMMOfVfMzXbTIKYpBFDA1BggrBgEFBQcBAQQp
MCcwJQYIKwYBBQUHMAGGGWh0dHA6Ly9zZXJ2ZXIudzEuZmk6ODg4OC8wEwYDVR0l
BAwwCgYIKwYBBQUHAwEwDQYJKoZIhvcNAQELBQADgYEAipAUpHwh5frK0e2a8/lI
wXZE9SfnynCr3b6Ny0fbkFwXD2ZTCCc7eftwzL59VWafGi8gRc+tJUNxqya3uulZ
4+RKOJ0XeVnYjfnIs2c0omtfzdZI6nhY9cKqr246GuecMwWfao/uCratCf0Hk0sl
/NRFgGYC0Pt8uNpd9wJ88pk=
-----END CERTIFICATE-----
