Certificate:
    Data:
        Version: 3 (0x2)
        Serial Number:
            d8:d3:e3:a6:cb:e3:cd:20
        Signature Algorithm: sha256WithRSAEncryption
        Issuer: C=FI, O=w1.fi, CN=Root CA
        Validity
            Not Before: Aug 20 20:37:00 2021 GMT
            Not After : Aug 20 20:37:00 2022 GMT
        Subject: C=FI, O=w1.fi, CN=server5.w1.fi
        Subject Public Key Info:
            Public Key Algorithm: rsaEncryption
                RSA Public-Key: (1024 bit)
                Modulus:
                    00:a3:99:e9:e2:e1:17:60:3b:70:34:1a:74:5c:46:
                    e3:b8:bd:bb:aa:c9:f3:ee:fb:12:30:a0:69:c3:74:
                    38:80:3a:ba:23:52:c7:c1:6a:cf:ba:dd:41:e3:d2:
                    69:35:a4:a6:60:6c:31:1f:85:bd:56:6c:7b:09:63:
                    cd:a7:51:6b:84:40:90:77:7e:97:68:7b:38:b5:c4:
                    15:3b:74:37:34:28:ba:7a:e2:d7:84:53:78:76:4d:
                    16:b7:b8:df:09:72:e7:87:26:74:2c:04:ca:c5:ce:
                    29:f5:b4:ce:db:28:eb:45:47:42:8f:ed:88:5a:a3:
                    23:49:9b:7b:bc:39:e1:01:53
                Exponent: 65537 (0x10001)
        X509v3 extensions:
            X509v3 Basic Constraints: 
                CA:FALSE
            X509v3 Subject Key Identifier: 
                33:16:9D:3B:17:15:82:2B:34:6E:38:E8:CC:22:BF:49:A7:5E:2A:2B
            X509v3 Authority Key Identifier: 
                keyid:B8:92:DE:FD:8A:18:B3:30:C3:9F:55:F3:33:5D:B4:C8:29:8A:41:14

            Authority Information Access: 
                OCSP - URI:http://server.w1.fi:8888/

            X509v3 Extended Key Usage: 
                TLS Web Client Authentication
    Signature Algorithm: sha256WithRSAEncryption
         8a:5c:e0:81:ff:ae:eb:11:1d:63:94:1c:ba:3b:85:5f:25:e1:
         9d:52:87:2d:09:27:14:62:e1:5d:e9:d2:5e:12:99:8e:b7:8a:
         a8:81:ec:0a:a3:59:3c:a8:80:a7:25:ad:e7:b0:96:63:ed:cd:
         fd:41:51:99:85:e1:b7:d7:21:fe:61:9c:24:39:12:75:f1:c0:
         a1:16:f2:89:ca:24:2b:60:43:8b:4e:f0:3c:b2:23:dc:1e:84:
         9a:b2:d5:71:76:7d:8b:2e:a5:46:95:83:db:05:42:bf:1e:9e:
         ce:93:58:81:39:55:0f:fb:2a:d9:1b:fe:39:1c:2c:7b:01:5b:
         c5:2f
-----BEGIN CERTIFICATE-----
MIICfTCCAeagAwIBAgIJANjT46bL480gMA0GCSqGSIb3DQEBCwUAMC8xCzAJBgNV
BAYTAkZJMQ4wDAYDVQQKDAV3MS5maTEQMA4GA1UEAwwHUm9vdCBDQTAeFw0yMTA4
MjAyMDM3MDBaFw0yMjA4MjAyMDM3MDBaMDUxCzAJBgNVBAYTAkZJMQ4wDAYDVQQK
DAV3MS5maTEWMBQGA1UEAwwNc2VydmVyNS53MS5maTCBnzANBgkqhkiG9w0BAQEF
AAOBjQAwgYkCgYEAo5np4uEXYDtwNBp0XEbjuL27qsnz7vsSMKBpw3Q4gDq6I1LH
wWrPut1B49JpNaSmYGwxH4W9Vmx7CWPNp1FrhECQd36XaHs4tcQVO3Q3NCi6euLX
hFN4dk0Wt7jfCXLnhyZ0LATKxc4p9bTO2yjrRUdCj+2IWqMjSZt7vDnhAVMCAwEA
AaOBmjCBlzAJBgNVHRMEAjAAMB0GA1UdDgQWBBQzFp07FxWCKzRuOOjMIr9Jp14q
KzAfBgNVHSMEGDAWgBS4kt79ihizMMOfVfMzXbTIKYpBFDA1BggrBgEFBQcBAQQp
MCcwJQYIKwYBBQUHMAGGGWh0dHA6Ly9zZXJ2ZXIudzEuZmk6ODg4OC8wEwYDVR0l
BAwwCgYIKwYBBQUHAwIwDQYJKoZIhvcNAQELBQADgYEAilzggf+u6xEdY5QcujuF
XyXhnVKHLQknFGLhXenSXhKZjreKqIHsCqNZPKiApyWt57CWY+3N/UFRmYXht9ch
/mGcJDkSdfHAoRbyicokK2BDi07wPLIj3B6EmrLVcXZ9iy6lRpWD2wVCvx6ezpNY
gTlVD/sq2Rv+ORwsewFbxS8=
-----END CERTIFICATE-----
