Certificate:
    Data:
        Version: 3 (0x2)
        Serial Number:
            d8:d3:e3:a6:cb:e3:cd:23
        Signature Algorithm: sha256WithRSAEncryption
        Issuer: C=FI, O=w1.fi, CN=Root CA
        Validity
            Not Before: Aug 20 20:37:01 2021 GMT
            Not After : Aug 20 20:37:01 2022 GMT
        Subject: C=FI, O=w1.fi, CN=Test User
        Subject Public Key Info:
            Public Key Algorithm: rsaEncryption
                RSA Public-Key: (1024 bit)
                Modulus:
                    00:a6:96:2e:9b:22:8c:df:94:be:8b:89:49:f6:78:
                    76:a2:60:7e:14:95:f3:96:fe:ab:19:25:03:34:64:
                    74:01:3e:a8:9f:7c:f1:47:61:60:4c:82:92:28:7c:
                    2b:a0:0e:cb:87:bf:59:eb:d7:f3:61:22:3b:14:f3:
                    ab:31:f6:5a:95:1f:b8:7a:b8:2c:3c:a9:61:53:78:
                    9b:e8:3e:50:ec:c2:d6:44:e7:43:cd:bc:3e:4e:e7:
                    46:fe:92:9e:c3:98:0f:29:58:c8:cb:89:01:75:47:
                    e9:95:57:0f:76:c5:2f:05:5e:c7:1e:0d:f2:3c:12:
                    63:5d:b9:54:19:af:7f:40:6b
                Exponent: 65537 (0x10001)
        X509v3 extensions:
            X509v3 Basic Constraints: 
                CA:FALSE
            X509v3 Subject Key Identifier: 
                81:DE:DF:E9:5A:00:1A:CA:67:D6:06:DD:65:B2:4E:C5:9A:04:43:7D
            X509v3 Authority Key Identifier: 
                keyid:B8:92:DE:FD:8A:18:B3:30:C3:9F:55:F3:33:5D:B4:C8:29:8A:41:14

            Authority Information Access: 
                OCSP - URI:http://server.w1.fi:8888/

            X509v3 Extended Key Usage: 
                TLS Web Client Authentication
    Signature Algorithm: sha256WithRSAEncryption
         9e:85:17:be:e2:26:d0:69:b6:9e:27:ca:b4:27:c1:32:0b:94:
         73:3d:17:2b:f8:e1:af:54:c3:1d:d1:3d:3c:98:5e:80:a1:cc:
         89:ed:35:8f:a9:bf:56:f5:57:65:4c:53:32:15:d9:5e:75:f3:
         9f:87:cc:b4:1f:05:dc:3a:41:aa:2d:27:76:60:ef:c9:4a:b4:
         93:e4:62:97:04:1d:bb:d9:d4:7b:bc:42:7d:b4:06:d8:5a:34:
         58:a0:a3:e4:de:8f:30:95:f4:eb:90:c2:88:30:27:20:62:68:
         34:0b:a8:de:4c:c3:1a:79:db:c0:65:e8:6b:68:58:80:3b:ff:
         0c:2e
-----BEGIN CERTIFICATE-----
MIICeTCCAeKgAwIBAgIJANjT46bL480jMA0GCSqGSIb3DQEBCwUAMC8xCzAJBgNV
BAYTAkZJMQ4wDAYDVQQKDAV3MS5maTEQMA4GA1UEAwwHUm9vdCBDQTAeFw0yMTA4
MjAyMDM3MDFaFw0yMjA4MjAyMDM3MDFaMDExCzAJBgNVBAYTAkZJMQ4wDAYDVQQK
DAV3MS5maTESMBAGA1UEAwwJVGVzdCBVc2VyMIGfMA0GCSqGSIb3DQEBAQUAA4GN
ADCBiQKBgQCmli6bIozflL6LiUn2eHaiYH4UlfOW/qsZJQM0ZHQBPqiffPFHYWBM
gpIofCugDsuHv1nr1/NhIjsU86sx9lqVH7h6uCw8qWFTeJvoPlDswtZE50PNvD5O
50b+kp7DmA8pWMjLiQF1R+mVVw92xS8FXsceDfI8EmNduVQZr39AawIDAQABo4Ga
MIGXMAkGA1UdEwQCMAAwHQYDVR0OBBYEFIHe3+laABrKZ9YG3WWyTsWaBEN9MB8G
A1UdIwQYMBaAFLiS3v2KGLMww59V8zNdtMgpikEUMDUGCCsGAQUFBwEBBCkwJzAl
BggrBgEFBQcwAYYZaHR0cDovL3NlcnZlci53MS5maTo4ODg4LzATBgNVHSUEDDAK
BggrBgEFBQcDAjANBgkqhkiG9w0BAQsFAAOBgQCehRe+4ibQabaeJ8q0J8EyC5Rz
PRcr+OGvVMMd0T08mF6AocyJ7TWPqb9W9VdlTFMyFdledfOfh8y0HwXcOkGqLSd2
YO/JSrST5GKXBB272dR7vEJ9tAbYWjRYoKPk3o8wlfTrkMKIMCcgYmg0C6jeTMMa
edvAZehraFiAO/8MLg==
-----END CERTIFICATE-----
