Certificate:
    Data:
        Version: 3 (0x2)
        Serial Number:
            d8:d3:e3:a6:cb:e3:cd:6a
        Signature Algorithm: sha256WithRSAEncryption
        Issuer: C=FI, L=Tuusula, O=w1.fi, CN=Root CA
        Validity
            Not Before: Aug 24 00:51:59 2021 GMT
            Not After : Aug 24 00:51:59 2022 GMT
        Subject: C=FI, O=w1.fi, CN=server3.w1.fi
        Subject Public Key Info:
            Public Key Algorithm: rsaEncryption
                RSA Public-Key: (2048 bit)
                Modulus:
                    00:c2:eb:ad:04:6f:4c:eb:23:b8:92:4e:75:dc:00:
                    d0:0d:d9:ad:09:21:f8:12:4a:2d:cd:db:7d:63:a1:
                    32:12:8e:b8:e3:bd:df:95:39:3a:17:65:54:f8:20:
                    d6:71:37:7d:b7:b4:72:31:7a:7a:3d:ba:74:72:f3:
                    ac:9d:16:38:35:1b:7d:50:3b:ad:96:5d:a7:c0:76:
                    0b:bb:4c:06:a8:d0:f7:2d:3d:94:a5:14:26:1a:11:
                    d8:42:1b:2d:4e:6e:60:9d:6a:cf:22:db:36:65:e2:
                    17:35:bc:69:2e:ab:30:e5:cd:fc:9a:e4:4f:0f:d1:
                    01:c3:e6:33:71:31:cd:6f:da:8c:21:9d:f7:1b:d1:
                    ed:7e:39:7a:fd:69:a3:88:1c:e6:f6:d3:3b:1a:1e:
                    d3:70:c3:ad:35:2a:22:a4:de:60:90:37:5d:e7:e0:
                    ce:9b:7d:4c:b5:cb:41:1b:9c:96:51:df:58:4d:b7:
                    67:da:95:25:60:8a:ff:6c:62:84:da:d6:24:b9:65:
                    d9:7a:59:f8:c8:bd:03:be:f6:17:d8:0e:86:ae:9a:
                    4c:7d:53:f6:b1:0e:82:cd:06:61:77:dd:46:5c:fd:
                    45:6a:f2:e8:22:ca:63:8b:d3:1c:f6:4f:10:ec:ea:
                    1a:08:1e:38:3d:80:6c:a3:48:47:f2:16:2a:07:5b:
                    f7:89
                Exponent: 65537 (0x10001)
        X509v3 extensions:
            X509v3 Basic Constraints: 
                CA:FALSE
            X509v3 Subject Key Identifier: 
                5E:84:D6:31:98:17:71:F8:63:5C:32:5B:7D:33:C0:D4:FA:36:A7:6A
            X509v3 Authority Key Identifier: 
                keyid:A4:FD:B9:39:1B:81:B3:AA:EB:88:1D:D4:81:A9:B5:11:70:CC:A7:E1

            Authority Information Access: 
                OCSP - URI:http://server.w1.fi:8888/

            X509v3 Extended Key Usage: 
                TLS Web Server Authentication
    Signature Algorithm: sha256WithRSAEncryption
         4e:ba:67:99:dd:bd:ed:a9:17:4c:49:4d:c7:6f:df:9b:9b:2f:
         d2:00:30:e5:1f:14:53:1c:c2:e5:7d:8b:c4:b0:2f:dd:cd:24:
         06:a4:e0:c8:c1:25:ec:8a:0c:b7:49:49:7d:f8:3d:b8:c8:5e:
         f8:eb:33:f0:eb:41:ed:2d:d6:e4:bd:fb:9c:62:e5:80:f8:25:
         2c:f5:19:7c:0e:e1:38:77:4f:ab:4c:9d:12:3d:31:f9:06:96:
         00:6a:fe:de:8f:bf:46:f5:f4:79:ea:2c:06:7d:b4:e3:d3:3c:
         f8:bf:31:b0:3a:ea:57:9e:9a:04:78:da:23:71:48:f6:d8:78:
         3a:27:12:39:f6:e6:85:b6:41:a7:b1:19:8c:3e:18:e9:1e:e6:
         d6:b0:f1:fe:d2:94:ae:b4:ed:0d:a6:21:6a:1b:83:2f:b0:c4:
         a8:44:c3:e6:f6:4e:51:c4:6b:e7:84:a1:98:36:b0:17:2c:5b:
         90:22:1a:1c:3a:bb:54:08:90:69:86:37:ec:56:ce:f5:ad:34:
         e3:45:95:5a:4d:35:4f:d5:b0:6d:1a:24:34:13:4c:4e:63:86:
         a7:13:db:7e:d4:54:5c:70:be:bf:c5:b8:1f:80:e5:52:b8:eb:
         fb:53:5d:ac:39:7a:af:1d:cd:3a:1c:91:0c:8a:d4:63:59:8d:
         c8:fa:da:01
-----BEGIN CERTIFICATE-----
MIIDlDCCAnygAwIBAgIJANjT46bL481qMA0GCSqGSIb3DQEBCwUAMEExCzAJBgNV
BAYTAkZJMRAwDgYDVQQHDAdUdXVzdWxhMQ4wDAYDVQQKDAV3MS5maTEQMA4GA1UE
AwwHUm9vdCBDQTAeFw0yMTA4MjQwMDUxNTlaFw0yMjA4MjQwMDUxNTlaMDUxCzAJ
BgNVBAYTAkZJMQ4wDAYDVQQKDAV3MS5maTEWMBQGA1UEAwwNc2VydmVyMy53MS5m
aTCCASIwDQYJKoZIhvcNAQEBBQADggEPADCCAQoCggEBAMLrrQRvTOsjuJJOddwA
0A3ZrQkh+BJKLc3bfWOhMhKOuOO935U5OhdlVPgg1nE3fbe0cjF6ej26dHLzrJ0W
ODUbfVA7rZZdp8B2C7tMBqjQ9y09lKUUJhoR2EIbLU5uYJ1qzyLbNmXiFzW8aS6r
MOXN/JrkTw/RAcPmM3ExzW/ajCGd9xvR7X45ev1po4gc5vbTOxoe03DDrTUqIqTe
YJA3Xefgzpt9TLXLQRucllHfWE23Z9qVJWCK/2xihNrWJLll2XpZ+Mi9A772F9gO
hq6aTH1T9rEOgs0GYXfdRlz9RWry6CLKY4vTHPZPEOzqGggeOD2AbKNIR/IWKgdb
94kCAwEAAaOBmjCBlzAJBgNVHRMEAjAAMB0GA1UdDgQWBBRehNYxmBdx+GNcMlt9
M8DU+janajAfBgNVHSMEGDAWgBSk/bk5G4GzquuIHdSBqbURcMyn4TA1BggrBgEF
BQcBAQQpMCcwJQYIKwYBBQUHMAGGGWh0dHA6Ly9zZXJ2ZXIudzEuZmk6ODg4OC8w
EwYDVR0lBAwwCgYIKwYBBQUHAwEwDQYJKoZIhvcNAQELBQADggEBAE66Z5ndve2p
F0xJTcdv35ubL9IAMOUfFFMcwuV9i8SwL93NJAak4MjBJeyKDLdJSX34PbjIXvjr
M/DrQe0t1uS9+5xi5YD4JSz1GXwO4Th3T6tMnRI9MfkGlgBq/t6Pv0b19HnqLAZ9
tOPTPPi/MbA66leemgR42iNxSPbYeDonEjn25oW2QaexGYw+GOke5taw8f7SlK60
7Q2mIWobgy+wxKhEw+b2TlHEa+eEoZg2sBcsW5AiGhw6u1QIkGmGN+xWzvWtNONF
lVpNNU/VsG0aJDQTTE5jhqcT237UVFxwvr/FuB+A5VK46/tTXaw5eq8dzTockQyK
1GNZjcj62gE=
-----END CERTIFICATE-----
