Certificate:
    Data:
        Version: 3 (0x2)
        Serial Number:
            d8:d3:e3:a6:cb:e3:cd:6f
        Signature Algorithm: sha256WithRSAEncryption
        Issuer: C=FI, L=Tuusula, O=w1.fi, CN=Root CA
        Validity
            Not Before: Aug 24 00:51:59 2021 GMT
            Not After : Aug 24 00:51:59 2022 GMT
        Subject: C=FI, O=w1.fi, CN=server-policies.w1.fi
        Subject Public Key Info:
            Public Key Algorithm: rsaEncryption
                RSA Public-Key: (3072 bit)
                Modulus:
                    00:d2:a6:ef:9b:bd:60:63:a1:75:ad:4b:d3:6f:59:
                    5e:84:fa:64:a0:64:24:0b:78:48:fc:8d:66:8b:2f:
                    6e:1d:44:2b:ae:c3:6d:94:ba:cb:a3:34:be:0b:4e:
                    47:8d:5b:d9:99:a6:a8:07:09:87:55:b2:37:7e:47:
                    67:5c:74:5f:2c:83:79:b2:08:47:b4:ec:4f:ef:75:
                    58:67:c6:58:4c:4f:68:c1:18:1a:84:4d:78:23:48:
                    9a:14:38:6e:5b:4a:12:eb:86:c4:f7:4c:38:ac:63:
                    a7:61:fa:b3:64:7c:89:0e:29:f7:9f:f8:75:c3:ef:
                    90:c2:71:96:a1:ab:69:d3:c2:74:13:cf:e8:f7:09:
                    98:ed:3a:79:d6:c4:46:49:93:78:3b:16:a5:a9:dd:
                    f0:eb:bd:44:a7:dc:4e:ce:f7:a7:c9:3f:78:08:8b:
                    05:c6:17:2e:ee:df:11:a0:f7:f5:58:80:76:c2:34:
                    ef:b9:78:be:c4:5c:be:5f:5e:d7:b7:cd:a3:12:c4:
                    e3:76:fc:64:85:64:65:6b:da:5c:c9:38:50:39:89:
                    72:e5:20:ef:b9:0b:cc:32:26:3c:79:5e:4a:8d:78:
                    8d:6a:dd:73:3a:c8:42:27:43:0d:dd:05:1f:bc:84:
                    df:56:2d:7e:98:50:9e:8b:78:b0:e7:fd:a8:39:07:
                    57:05:12:fc:00:ef:89:f0:3f:03:f6:93:5b:b0:44:
                    57:61:61:47:05:6c:c4:16:98:61:b8:93:32:45:39:
                    fb:bb:8e:3b:87:18:5f:3a:07:57:d1:98:89:1d:85:
                    b7:5e:ea:1b:51:79:94:5c:d8:fa:bd:ba:75:00:03:
                    e3:f4:03:cd:5c:db:16:a1:ac:b7:f4:93:7e:ec:9a:
                    b0:e6:9c:4e:5d:3c:ba:01:32:cc:70:ca:49:3c:92:
                    fe:d2:88:81:9d:db:f4:bb:80:fe:ef:89:50:ea:80:
                    95:bd:c4:fa:28:d8:c0:86:61:37:d7:99:2b:8e:b9:
                    06:78:9a:08:44:17:da:19:35:97
                Exponent: 65537 (0x10001)
        X509v3 extensions:
            X509v3 Basic Constraints: 
                CA:FALSE
            X509v3 Subject Key Identifier: 
                3E:AD:0D:4D:7E:FA:A2:4A:D5:F5:31:EA:B6:B4:BF:83:B1:55:7E:C7
            X509v3 Authority Key Identifier: 
                keyid:A4:FD:B9:39:1B:81:B3:AA:EB:88:1D:D4:81:A9:B5:11:70:CC:A7:E1

            Authority Information Access: 
                OCSP - URI:http://server.w1.fi:8888/

            X509v3 Subject Alternative Name: 
                DNS:server-policies.w1.fi
            X509v3 Certificate Policies: 
                Policy: 1.3.6.1.4.1.40808.1.3.1

            X509v3 Extended Key Usage: 
                TLS Web Server Authentication
    Signature Algorithm: sha256WithRSAEncryption
         9a:0a:e8:70:53:0d:95:87:50:c4:6a:02:36:fb:46:cb:06:9c:
         33:cd:35:3a:b2:0b:0c:19:ff:17:b0:09:d4:c6:f1:97:1b:5e:
         a6:53:6e:0f:18:41:86:3d:28:d8:5d:a2:a2:b7:32:a8:3d:e0:
         9f:f5:a0:67:a2:5f:cd:cf:f6:36:aa:21:32:60:5f:5e:df:e8:
         1f:11:99:89:3b:7e:0e:3a:26:02:3a:1b:71:e7:53:54:47:7e:
         12:77:7a:2a:e7:3f:38:c2:e4:d1:6c:a9:a4:89:63:92:00:ef:
         55:bb:6b:7c:30:ea:d9:3f:14:b9:06:ab:68:eb:7c:e8:d1:c8:
         7c:40:8d:fe:3c:50:da:79:84:bc:9d:e4:34:a8:ec:69:fb:c8:
         35:7a:c1:2c:f8:c2:99:b3:f0:f5:e2:1f:a2:cf:85:2a:e0:2e:
         d0:ab:9c:5a:ad:76:05:c6:49:4b:fe:b4:1c:d0:5e:38:92:5a:
         ed:58:f5:dc:4c:f6:1d:44:a4:0c:a2:30:00:68:7b:67:8f:2a:
         97:37:4e:2f:bb:b9:66:53:84:4f:ac:8c:53:ac:5a:09:0b:62:
         d9:2c:2b:b8:a5:45:78:15:3b:30:ec:d2:df:56:7f:11:5e:d8:
         05:28:6d:5c:b6:9f:45:f7:89:af:ac:b9:c0:df:69:6e:df:28:
         24:89:44:7b
-----BEGIN CERTIFICATE-----
MIIEWDCCA0CgAwIBAgIJANjT46bL481vMA0GCSqGSIb3DQEBCwUAMEExCzAJBgNV
BAYTAkZJMRAwDgYDVQQHDAdUdXVzdWxhMQ4wDAYDVQQKDAV3MS5maTEQMA4GA1UE
AwwHUm9vdCBDQTAeFw0yMTA4MjQwMDUxNTlaFw0yMjA4MjQwMDUxNTlaMD0xCzAJ
BgNVBAYTAkZJMQ4wDAYDVQQKDAV3MS5maTEeMBwGA1UEAwwVc2VydmVyLXBvbGlj
aWVzLncxLmZpMIIBojANBgkqhkiG9w0BAQEFAAOCAY8AMIIBigKCAYEA0qbvm71g
Y6F1rUvTb1lehPpkoGQkC3hI/I1miy9uHUQrrsNtlLrLozS+C05HjVvZmaaoBwmH
VbI3fkdnXHRfLIN5sghHtOxP73VYZ8ZYTE9owRgahE14I0iaFDhuW0oS64bE90w4
rGOnYfqzZHyJDin3n/h1w++QwnGWoatp08J0E8/o9wmY7Tp51sRGSZN4Oxalqd3w
671Ep9xOzvenyT94CIsFxhcu7t8RoPf1WIB2wjTvuXi+xFy+X17Xt82jEsTjdvxk
hWRla9pcyThQOYly5SDvuQvMMiY8eV5KjXiNat1zOshCJ0MN3QUfvITfVi1+mFCe
i3iw5/2oOQdXBRL8AO+J8D8D9pNbsERXYWFHBWzEFphhuJMyRTn7u447hxhfOgdX
0ZiJHYW3XuobUXmUXNj6vbp1AAPj9APNXNsWoay39JN+7Jqw5pxOXTy6ATLMcMpJ
PJL+0oiBndv0u4D+74lQ6oCVvcT6KNjAhmE315krjrkGeJoIRBfaGTWXAgMBAAGj
gdYwgdMwCQYDVR0TBAIwADAdBgNVHQ4EFgQUPq0NTX76okrV9THqtrS/g7FVfscw
HwYDVR0jBBgwFoAUpP25ORuBs6rriB3Ugam1EXDMp+EwNQYIKwYBBQUHAQEEKTAn
MCUGCCsGAQUFBzABhhlodHRwOi8vc2VydmVyLncxLmZpOjg4ODgvMCAGA1UdEQQZ
MBeCFXNlcnZlci1wb2xpY2llcy53MS5maTAYBgNVHSAEETAPMA0GCysGAQQBgr5o
AQMBMBMGA1UdJQQMMAoGCCsGAQUFBwMBMA0GCSqGSIb3DQEBCwUAA4IBAQCaCuhw
Uw2Vh1DEagI2+0bLBpwzzTU6sgsMGf8XsAnUxvGXG16mU24PGEGGPSjYXaKitzKo
PeCf9aBnol/Nz/Y2qiEyYF9e3+gfEZmJO34OOiYCOhtx51NUR34Sd3oq5z84wuTR
bKmkiWOSAO9Vu2t8MOrZPxS5Bqto63zo0ch8QI3+PFDaeYS8neQ0qOxp+8g1esEs
+MKZs/D14h+iz4Uq4C7Qq5xarXYFxklL/rQc0F44klrtWPXcTPYdRKQMojAAaHtn
jyqXN04vu7lmU4RPrIxTrFoJC2LZLCu4pUV4FTsw7NLfVn8RXtgFKG1ctp9F94mv
rLnA32lu3ygkiUR7
-----END CERTIFICATE-----
