Certificate:
    Data:
        Version: 3 (0x2)
        Serial Number:
            d8:d3:e3:a6:cb:e3:cd:72
        Signature Algorithm: sha256WithRSAEncryption
        Issuer: C=FI, L=Tuusula, O=w1.fi, CN=Root CA
        Validity
            Not Before: Aug 24 00:51:59 2021 GMT
            Not After : Aug 24 00:51:59 2022 GMT
        Subject: C=FI, O=w1.fi, CN=ocsp.w1.fi
        Subject Public Key Info:
            Public Key Algorithm: rsaEncryption
                RSA Public-Key: (2048 bit)
                Modulus:
                    00:a7:22:85:5d:bb:3b:1c:02:9a:01:73:aa:88:63:
                    6e:a1:43:33:b5:fd:02:fe:1f:c8:23:04:8b:8c:51:
                    52:5b:e0:cc:62:60:2a:aa:ba:88:4f:41:39:6b:fb:
                    34:c0:a2:7a:77:2e:e1:56:9e:ef:ca:ae:67:d5:f9:
                    8b:5f:ab:ae:87:e1:b0:14:23:03:ad:69:4b:df:2b:
                    91:70:75:cd:bf:65:40:12:d0:eb:2f:89:f0:41:15:
                    1b:ed:4c:0d:3a:92:96:91:f8:cd:54:38:15:eb:6b:
                    45:9f:52:85:7e:4e:15:ab:4e:4b:eb:22:c2:5d:be:
                    ff:36:6f:42:27:d8:4b:c6:e1:be:f8:08:cf:ac:fd:
                    51:30:a2:e8:80:13:00:05:b6:05:55:42:0b:fa:1e:
                    40:84:50:09:8c:25:35:54:25:45:39:9f:4e:7c:0a:
                    d9:c4:4a:0c:16:4e:3e:68:7f:1b:ad:c9:53:08:5c:
                    b8:04:d4:d6:93:62:fd:af:f9:b4:1d:f4:96:3e:9b:
                    9d:14:6d:1c:6c:23:ae:3d:c7:b4:cf:31:90:20:6a:
                    80:99:62:7e:5c:e9:d5:d5:bd:59:4d:a3:d9:dc:e9:
                    fb:e8:7b:65:87:d5:f9:49:9e:be:0e:f3:a9:21:de:
                    94:e8:54:fc:80:cf:da:e3:8f:9a:c6:4c:76:18:0e:
                    fe:ab
                Exponent: 65537 (0x10001)
        X509v3 extensions:
            X509v3 Basic Constraints: 
                CA:FALSE
            X509v3 Key Usage: 
                Digital Signature, Non Repudiation, Key Encipherment
            X509v3 Extended Key Usage: 
                OCSP Signing
    Signature Algorithm: sha256WithRSAEncryption
         ac:91:3b:fc:92:fc:3b:bb:fe:eb:b9:72:d2:12:e4:f1:bd:4f:
         a4:9f:1c:84:d6:17:b9:91:cd:17:c5:a5:bf:cb:d4:b3:67:99:
         86:31:d0:8b:63:00:c6:ba:b1:dc:79:a0:7b:e0:28:6d:6e:db:
         40:0f:8d:ee:29:73:fe:72:39:34:4f:6f:b5:68:38:45:35:a2:
         6b:be:88:7c:1d:e6:25:b3:94:ff:76:7a:04:99:30:da:24:7f:
         22:ba:0c:80:52:58:03:1b:0c:6c:8c:c9:44:24:0b:f0:15:0f:
         49:89:7c:81:24:d7:e5:fc:5f:76:28:94:7c:d6:82:82:c8:8d:
         9d:aa:90:8a:fe:76:01:2e:57:1b:63:d9:e5:0b:ca:c2:8e:f3:
         e4:56:36:14:fb:bc:97:52:20:3b:4e:8d:ae:0e:a0:02:b4:83:
         27:f0:c9:62:30:87:1d:10:dc:ba:3d:91:81:a0:86:9f:fb:80:
         c0:ce:e8:68:d1:dc:1e:74:52:35:58:b6:a9:36:58:2d:18:4c:
         0f:4b:8a:37:aa:fe:5d:2c:de:bc:e8:3f:0d:58:0e:cf:26:eb:
         84:ef:42:d5:c3:fe:38:da:d5:6b:bf:d9:85:e0:5d:77:ab:00:
         3c:63:e5:69:c7:a6:44:25:65:be:d7:fc:ee:44:d6:64:27:1d:
         31:44:f0:ce
-----BEGIN CERTIFICATE-----
MIIDJTCCAg2gAwIBAgIJANjT46bL481yMA0GCSqGSIb3DQEBCwUAMEExCzAJBgNV
BAYTAkZJMRAwDgYDVQQHDAdUdXVzdWxhMQ4wDAYDVQQKDAV3MS5maTEQMA4GA1UE
AwwHUm9vdCBDQTAeFw0yMTA4MjQwMDUxNTlaFw0yMjA4MjQwMDUxNTlaMDIxCzAJ
BgNVBAYTAkZJMQ4wDAYDVQQKDAV3MS5maTETMBEGA1UEAwwKb2NzcC53MS5maTCC
ASIwDQYJKoZIhvcNAQEBBQADggEPADCCAQoCggEBAKcihV27OxwCmgFzqohjbqFD
M7X9Av4fyCMEi4xRUlvgzGJgKqq6iE9BOWv7NMCiencu4Vae78quZ9X5i1+rrofh
sBQjA61pS98rkXB1zb9lQBLQ6y+J8EEVG+1MDTqSlpH4zVQ4FetrRZ9ShX5OFatO
S+siwl2+/zZvQifYS8bhvvgIz6z9UTCi6IATAAW2BVVCC/oeQIRQCYwlNVQlRTmf
TnwK2cRKDBZOPmh/G63JUwhcuATU1pNi/a/5tB30lj6bnRRtHGwjrj3HtM8xkCBq
gJliflzp1dW9WU2j2dzp++h7ZYfV+Umevg7zqSHelOhU/IDP2uOPmsZMdhgO/qsC
AwEAAaMvMC0wCQYDVR0TBAIwADALBgNVHQ8EBAMCBeAwEwYDVR0lBAwwCgYIKwYB
BQUHAwkwDQYJKoZIhvcNAQELBQADggEBAKyRO/yS/Du7/uu5ctIS5PG9T6SfHITW
F7mRzRfFpb/L1LNnmYYx0ItjAMa6sdx5oHvgKG1u20APje4pc/5yOTRPb7VoOEU1
omu+iHwd5iWzlP92egSZMNokfyK6DIBSWAMbDGyMyUQkC/AVD0mJfIEk1+X8X3Yo
lHzWgoLIjZ2qkIr+dgEuVxtj2eULysKO8+RWNhT7vJdSIDtOja4OoAK0gyfwyWIw
hx0Q3Lo9kYGghp/7gMDO6GjR3B50UjVYtqk2WC0YTA9Lijeq/l0s3rzoPw1YDs8m
64TvQtXD/jja1Wu/2YXgXXerADxj5WnHpkQlZb7X/O5E1mQnHTFE8M4=
-----END CERTIFICATE-----
