Certificate:
    Data:
        Version: 3 (0x2)
        Serial Number:
            d8:d3:e3:a6:cb:e3:cd:6d
        Signature Algorithm: sha256WithRSAEncryption
        Issuer: C=FI, L=Tuusula, O=w1.fi, CN=Root CA
        Validity
            Not Before: Aug 24 00:51:59 2021 GMT
            Not After : Aug 24 00:51:59 2022 GMT
        Subject: C=FI, O=w1.fi, CN=server6.w1.fi
        Subject Public Key Info:
            Public Key Algorithm: rsaEncryption
                RSA Public-Key: (2048 bit)
                Modulus:
                    00:d0:23:f4:80:12:be:4a:64:4d:af:99:af:52:ef:
                    8d:f5:73:9a:1a:28:2b:92:e8:d4:90:25:3e:85:47:
                    9f:c9:c4:b9:7a:35:24:84:2f:1e:51:16:66:d3:ac:
                    31:ea:f1:63:a4:4c:ea:26:f0:fa:61:c7:9f:f2:74:
                    69:6a:78:09:c5:c9:89:74:db:6d:ba:c7:b6:b1:f0:
                    61:1f:ef:3a:1c:d5:c6:fc:95:5d:9b:37:d6:5b:cb:
                    37:93:59:ed:50:f2:6a:a2:01:5c:9e:22:af:3a:31:
                    d9:ee:eb:33:49:93:4e:46:ee:9d:7b:86:86:da:2b:
                    1d:f9:f3:a2:01:7d:0d:55:1c:3b:67:e9:c9:fb:bc:
                    a9:52:4c:4a:21:85:68:50:2f:e4:05:c1:3f:e0:b3:
                    a3:25:d4:6c:2e:61:7c:9d:d5:da:93:bb:19:fe:ea:
                    bf:f2:c8:f9:dc:de:48:54:e1:fe:d4:b5:94:5a:3f:
                    2c:2b:8c:b1:6c:ef:3a:b0:d2:0c:2c:13:75:61:db:
                    97:6b:fa:6b:f9:9d:f7:14:aa:35:72:d8:4c:0b:a1:
                    5c:08:c5:87:d4:e4:87:1d:6b:0a:50:1f:b5:0e:3f:
                    bb:36:8b:c6:e0:bd:1e:1a:e1:1c:f3:37:a4:91:65:
                    4c:43:b4:9e:cc:1b:61:68:09:bd:1e:ab:61:bd:c1:
                    91:71
                Exponent: 65537 (0x10001)
        X509v3 extensions:
            X509v3 Basic Constraints: 
                CA:FALSE
            X509v3 Subject Key Identifier: 
                AB:D2:88:CA:9C:44:26:89:2E:C0:B9:8D:46:DD:5C:69:02:9E:01:CB
            X509v3 Authority Key Identifier: 
                keyid:A4:FD:B9:39:1B:81:B3:AA:EB:88:1D:D4:81:A9:B5:11:70:CC:A7:E1

            Authority Information Access: 
                OCSP - URI:http://server.w1.fi:8888/

            X509v3 Extended Key Usage: 
                TLS Web Client Authentication, TLS Web Server Authentication
    Signature Algorithm: sha256WithRSAEncryption
         8b:a9:cd:20:88:da:55:41:a8:cc:90:ca:75:f6:8b:15:35:4e:
         9a:8b:8a:a6:67:15:7c:7c:84:fb:35:c7:ce:89:e0:b8:ff:22:
         a2:a1:09:7d:e7:26:ab:c2:7e:6d:fa:cb:97:c1:7e:0d:ef:94:
         91:51:88:f5:e7:27:87:f3:2c:c5:f4:4d:a6:fb:8b:67:3f:31:
         df:ac:8a:cc:a9:70:40:5c:4a:33:76:ef:5c:3b:c5:14:0a:43:
         de:12:6a:6a:f7:51:85:02:cd:99:dc:91:58:81:44:fc:b8:4c:
         7a:78:2e:72:23:2e:fc:61:f1:0f:00:87:34:6f:b2:ee:95:95:
         d7:57:f7:2e:d8:37:48:ae:a4:dd:c3:c0:ba:79:eb:c5:3f:d3:
         ac:58:d4:a9:4c:fd:56:7c:34:49:45:06:31:fa:8a:3b:4f:3f:
         9f:a5:82:b0:47:e8:09:fb:9c:06:4a:20:f9:38:73:05:63:3f:
         d6:98:19:3a:35:0d:f6:b7:dc:40:6e:66:67:92:36:52:d3:a1:
         e3:00:5e:d6:33:61:20:14:89:f9:46:84:06:a9:8d:79:7f:5d:
         cb:5b:43:f2:2c:4a:b9:4c:19:1e:69:f1:24:a9:5f:18:1a:71:
         af:af:f3:26:c9:b7:db:6f:5f:ab:19:53:e3:10:e4:66:5f:ac:
         84:00:c7:1e
-----BEGIN CERTIFICATE-----
MIIDnjCCAoagAwIBAgIJANjT46bL481tMA0GCSqGSIb3DQEBCwUAMEExCzAJBgNV
BAYTAkZJMRAwDgYDVQQHDAdUdXVzdWxhMQ4wDAYDVQQKDAV3MS5maTEQMA4GA1UE
AwwHUm9vdCBDQTAeFw0yMTA4MjQwMDUxNTlaFw0yMjA4MjQwMDUxNTlaMDUxCzAJ
BgNVBAYTAkZJMQ4wDAYDVQQKDAV3MS5maTEWMBQGA1UEAwwNc2VydmVyNi53MS5m
aTCCASIwDQYJKoZIhvcNAQEBBQADggEPADCCAQoCggEBANAj9IASvkpkTa+Zr1Lv
jfVzmhooK5Lo1JAlPoVHn8nEuXo1JIQvHlEWZtOsMerxY6RM6ibw+mHHn/J0aWp4
CcXJiXTbbbrHtrHwYR/vOhzVxvyVXZs31lvLN5NZ7VDyaqIBXJ4irzox2e7rM0mT
TkbunXuGhtorHfnzogF9DVUcO2fpyfu8qVJMSiGFaFAv5AXBP+CzoyXUbC5hfJ3V
2pO7Gf7qv/LI+dzeSFTh/tS1lFo/LCuMsWzvOrDSDCwTdWHbl2v6a/md9xSqNXLY
TAuhXAjFh9Tkhx1rClAftQ4/uzaLxuC9HhrhHPM3pJFlTEO0nswbYWgJvR6rYb3B
kXECAwEAAaOBpDCBoTAJBgNVHRMEAjAAMB0GA1UdDgQWBBSr0ojKnEQmiS7AuY1G
3VxpAp4ByzAfBgNVHSMEGDAWgBSk/bk5G4GzquuIHdSBqbURcMyn4TA1BggrBgEF
BQcBAQQpMCcwJQYIKwYBBQUHMAGGGWh0dHA6Ly9zZXJ2ZXIudzEuZmk6ODg4OC8w
HQYDVR0lBBYwFAYIKwYBBQUHAwIGCCsGAQUFBwMBMA0GCSqGSIb3DQEBCwUAA4IB
AQCLqc0giNpVQajMkMp19osVNU6ai4qmZxV8fIT7NcfOieC4/yKioQl95yarwn5t
+suXwX4N75SRUYj15yeH8yzF9E2m+4tnPzHfrIrMqXBAXEozdu9cO8UUCkPeEmpq
91GFAs2Z3JFYgUT8uEx6eC5yIy78YfEPAIc0b7LulZXXV/cu2DdIrqTdw8C6eevF
P9OsWNSpTP1WfDRJRQYx+oo7Tz+fpYKwR+gJ+5wGSiD5OHMFYz/WmBk6NQ32t9xA
bmZnkjZS06HjAF7WM2EgFIn5RoQGqY15f13LW0PyLEq5TBkeafEkqV8YGnGvr/Mm
ybfbb1+rGVPjEORmX6yEAMce
-----END CERTIFICATE-----
