Certificate:
    Data:
        Version: 3 (0x2)
        Serial Number:
            d8:d3:e3:a6:cb:e3:cd:70
        Signature Algorithm: sha256WithRSAEncryption
        Issuer: C=FI, L=Tuusula, O=w1.fi, CN=Root CA
        Validity
            Not Before: Aug 24 00:51:59 2021 GMT
            Not After : Aug 24 00:51:59 2022 GMT
        Subject: C=FI, O=w1.fi, CN=server-policies2.w1.fi
        Subject Public Key Info:
            Public Key Algorithm: rsaEncryption
                RSA Public-Key: (3072 bit)
                Modulus:
                    00:e6:50:d1:28:05:27:6c:d4:42:d3:42:c7:cc:53:
                    a9:6b:c2:a3:ab:20:6f:17:34:9d:e4:1d:31:d0:c4:
                    68:65:42:d5:e8:bd:aa:b8:e4:e9:f6:ee:2e:75:cd:
                    6a:8c:f6:8e:aa:af:6c:7c:eb:35:50:55:b1:c2:b3:
                    f8:a7:d0:1e:a3:33:26:68:40:20:13:74:08:87:ef:
                    b6:3a:f1:7f:3e:f5:7f:93:44:74:37:8b:c3:89:a7:
                    ba:5f:42:39:4a:22:20:40:66:c6:6f:77:cf:54:3f:
                    05:61:de:ab:71:fa:9f:78:6d:97:4a:e8:60:a0:11:
                    aa:6c:ba:9d:44:65:18:e8:e0:8f:d1:df:da:95:ab:
                    41:2c:63:65:f6:42:42:e6:1f:42:a4:1c:74:20:49:
                    f4:d4:92:0e:e3:be:3b:55:fd:38:68:74:3a:e4:df:
                    9a:2b:95:bf:e9:d1:38:8b:16:24:20:35:db:b8:d0:
                    15:30:2e:2f:6a:24:b9:e1:e9:e7:b6:b5:bd:e6:0f:
                    59:dd:df:95:9c:ab:03:b4:c5:42:81:48:61:cc:3c:
                    06:17:85:63:6e:28:cb:d7:88:d1:ce:40:c7:ff:61:
                    51:ac:bb:ba:23:c9:42:a7:7d:27:0d:1e:53:90:cf:
                    22:3f:57:f5:ff:1a:05:0c:9c:7a:1b:fb:e2:47:5f:
                    45:cb:ee:88:a5:a0:54:71:83:f7:d3:d3:c5:bc:b2:
                    7e:85:a7:b1:1a:cf:91:cb:8b:39:ba:7c:2c:9d:b2:
                    c5:79:c3:e0:80:73:06:30:4f:5d:81:52:e2:bf:43:
                    55:85:5d:64:c4:97:ac:e9:2d:7e:30:b5:e1:52:50:
                    53:0c:ac:24:8e:7b:a2:57:8d:ff:b1:05:ba:23:33:
                    a6:08:a3:b4:38:42:f6:5c:d9:bc:5d:75:95:82:ff:
                    4d:9a:db:56:2f:1b:38:d2:51:05:2c:90:62:f1:8e:
                    4c:ee:ea:1b:ae:aa:53:74:85:ba:c6:c3:c2:4b:30:
                    bd:e0:2e:c8:ac:7e:25:cc:32:5f
                Exponent: 65537 (0x10001)
        X509v3 extensions:
            X509v3 Basic Constraints: 
                CA:FALSE
            X509v3 Subject Key Identifier: 
                4E:01:8B:7E:C2:77:94:E1:68:B3:C4:29:35:24:05:0B:DE:84:4A:89
            X509v3 Authority Key Identifier: 
                keyid:A4:FD:B9:39:1B:81:B3:AA:EB:88:1D:D4:81:A9:B5:11:70:CC:A7:E1

            Authority Information Access: 
                OCSP - URI:http://server.w1.fi:8888/

            X509v3 Subject Alternative Name: 
                DNS:server-policies2.w1.fi
            X509v3 Certificate Policies: 
                Policy: 1.3.6.1.4.1.40808.1.3.2

            X509v3 Extended Key Usage: 
                TLS Web Server Authentication
    Signature Algorithm: sha256WithRSAEncryption
         9c:aa:7d:9f:56:e1:8e:b4:d0:d5:8b:9b:49:9c:db:55:f9:04:
         8d:8a:db:bc:cf:f9:79:1b:2d:88:33:7d:e7:1c:35:1e:16:f6:
         b3:eb:65:ed:2b:43:65:16:ea:f1:67:ea:6c:16:22:30:52:5c:
         de:83:72:97:84:82:6f:99:18:3a:f7:ad:a0:4e:3e:dc:58:9b:
         19:71:22:24:d8:c6:99:3b:b6:97:ba:f1:2e:21:b8:71:83:e7:
         93:02:04:8e:58:2c:81:0e:c5:32:1b:80:ba:bd:6f:d1:42:63:
         78:c6:b8:f9:f7:93:a0:d9:e3:58:1a:8a:35:8c:08:8f:e4:81:
         d4:10:c1:54:2c:18:59:ec:4a:f0:7a:b0:30:32:de:a9:34:1f:
         e2:7e:a5:73:6d:92:5d:82:0c:15:af:cb:d5:09:e9:43:e1:fb:
         6b:63:3a:b5:8a:72:58:3d:63:f6:83:3e:e9:13:e7:d2:db:5c:
         09:f8:8e:d0:b6:c5:b1:a3:39:ec:a0:fc:ca:d4:5e:8f:f1:06:
         4c:38:ee:ba:4c:e7:2d:27:11:71:9c:a3:85:00:e6:19:2f:58:
         83:68:d5:56:3d:ec:66:8b:49:e9:86:fa:a5:c6:1e:7d:c5:4e:
         cb:6c:99:d6:69:90:7d:9e:cd:1c:a6:65:68:5e:dd:64:6f:68:
         59:e5:29:9a
-----BEGIN CERTIFICATE-----
MIIEWjCCA0KgAwIBAgIJANjT46bL481wMA0GCSqGSIb3DQEBCwUAMEExCzAJBgNV
BAYTAkZJMRAwDgYDVQQHDAdUdXVzdWxhMQ4wDAYDVQQKDAV3MS5maTEQMA4GA1UE
AwwHUm9vdCBDQTAeFw0yMTA4MjQwMDUxNTlaFw0yMjA4MjQwMDUxNTlaMD4xCzAJ
BgNVBAYTAkZJMQ4wDAYDVQQKDAV3MS5maTEfMB0GA1UEAwwWc2VydmVyLXBvbGlj
aWVzMi53MS5maTCCAaIwDQYJKoZIhvcNAQEBBQADggGPADCCAYoCggGBAOZQ0SgF
J2zUQtNCx8xTqWvCo6sgbxc0neQdMdDEaGVC1ei9qrjk6fbuLnXNaoz2jqqvbHzr
NVBVscKz+KfQHqMzJmhAIBN0CIfvtjrxfz71f5NEdDeLw4mnul9COUoiIEBmxm93
z1Q/BWHeq3H6n3htl0roYKARqmy6nURlGOjgj9Hf2pWrQSxjZfZCQuYfQqQcdCBJ
9NSSDuO+O1X9OGh0OuTfmiuVv+nROIsWJCA127jQFTAuL2okueHp57a1veYPWd3f
lZyrA7TFQoFIYcw8BheFY24oy9eI0c5Ax/9hUay7uiPJQqd9Jw0eU5DPIj9X9f8a
BQycehv74kdfRcvuiKWgVHGD99PTxbyyfoWnsRrPkcuLObp8LJ2yxXnD4IBzBjBP
XYFS4r9DVYVdZMSXrOktfjC14VJQUwysJI57oleN/7EFuiMzpgijtDhC9lzZvF11
lYL/TZrbVi8bONJRBSyQYvGOTO7qG66qU3SFusbDwkswveAuyKx+JcwyXwIDAQAB
o4HXMIHUMAkGA1UdEwQCMAAwHQYDVR0OBBYEFE4Bi37Cd5ThaLPEKTUkBQvehEqJ
MB8GA1UdIwQYMBaAFKT9uTkbgbOq64gd1IGptRFwzKfhMDUGCCsGAQUFBwEBBCkw
JzAlBggrBgEFBQcwAYYZaHR0cDovL3NlcnZlci53MS5maTo4ODg4LzAhBgNVHREE
GjAYghZzZXJ2ZXItcG9saWNpZXMyLncxLmZpMBgGA1UdIAQRMA8wDQYLKwYBBAGC
vmgBAwIwEwYDVR0lBAwwCgYIKwYBBQUHAwEwDQYJKoZIhvcNAQELBQADggEBAJyq
fZ9W4Y600NWLm0mc21X5BI2K27zP+XkbLYgzfeccNR4W9rPrZe0rQ2UW6vFn6mwW
IjBSXN6DcpeEgm+ZGDr3raBOPtxYmxlxIiTYxpk7tpe68S4huHGD55MCBI5YLIEO
xTIbgLq9b9FCY3jGuPn3k6DZ41gaijWMCI/kgdQQwVQsGFnsSvB6sDAy3qk0H+J+
pXNtkl2CDBWvy9UJ6UPh+2tjOrWKclg9Y/aDPukT59LbXAn4jtC2xbGjOeyg/MrU
Xo/xBkw47rpM5y0nEXGco4UA5hkvWINo1VY97GaLSemG+qXGHn3FTstsmdZpkH2e
zRymZWhe3WRvaFnlKZo=
-----END CERTIFICATE-----
