Certificate:
    Data:
        Version: 3 (0x2)
        Serial Number:
            d8:d3:e3:a6:cb:e3:cd:69
        Signature Algorithm: sha256WithRSAEncryption
        Issuer: C=FI, L=Tuusula, O=w1.fi, CN=Root CA
        Validity
            Not Before: Aug 24 00:51:59 2021 GMT
            Not After : Aug 24 00:51:59 2022 GMT
        Subject: C=FI, O=w1.fi, CN=server.w1.fi
        Subject Public Key Info:
            Public Key Algorithm: rsaEncryption
                RSA Public-Key: (2048 bit)
                Modulus:
                    00:fd:0e:5e:cd:19:2c:6a:41:83:d9:2c:0e:36:cd:
                    09:b0:8f:b2:c9:8c:c8:d2:03:38:6e:54:bc:43:ee:
                    ce:f8:59:b1:e9:3f:6d:d4:5e:e3:c5:73:19:3d:0b:
                    bc:29:d7:d0:6e:75:00:35:fc:f7:65:b1:b6:0f:cb:
                    06:49:cf:a9:4e:3d:c2:64:4b:18:24:0a:70:b8:6e:
                    54:dc:90:3f:6c:18:fd:b6:88:ab:37:dc:8b:4b:b5:
                    e1:ff:ed:bb:45:05:a3:f0:aa:51:2b:f1:79:06:7f:
                    2f:cd:5d:fc:e6:8a:af:1b:b9:7b:ca:43:75:01:1d:
                    8e:2d:d9:11:13:86:fb:3c:4b:60:a4:29:49:e3:d2:
                    20:20:cb:5c:0d:9c:d2:9c:30:21:11:bc:b3:74:df:
                    64:b0:b7:67:ee:6a:df:af:3d:18:02:b7:dc:e5:54:
                    75:b5:6c:40:c4:b0:8a:1b:c6:fd:ab:1e:b9:ef:d1:
                    83:09:0d:55:ba:17:88:4e:d0:bd:cf:73:36:7c:28:
                    4b:f6:aa:48:d4:e8:fb:25:d8:1d:af:c9:68:73:ac:
                    46:ae:cb:eb:79:36:57:ad:c3:70:02:15:6d:f0:a5:
                    43:73:ab:72:04:b1:16:60:74:0e:4a:c1:8f:52:28:
                    1a:95:7e:ab:d0:04:f6:fa:11:da:1b:d1:99:a4:4f:
                    9e:ed
                Exponent: 65537 (0x10001)
        X509v3 extensions:
            X509v3 Basic Constraints: 
                CA:FALSE
            X509v3 Subject Key Identifier: 
                71:26:7A:1F:72:81:97:24:11:AA:C0:75:FA:BF:31:10:69:49:D0:E7
            X509v3 Authority Key Identifier: 
                keyid:A4:FD:B9:39:1B:81:B3:AA:EB:88:1D:D4:81:A9:B5:11:70:CC:A7:E1

            Authority Information Access: 
                OCSP - URI:http://server.w1.fi:8888/

            X509v3 Subject Alternative Name: 
                DNS:server.w1.fi
            X509v3 Extended Key Usage: 
                TLS Web Server Authentication
    Signature Algorithm: sha256WithRSAEncryption
         73:ba:19:74:42:fd:e8:2d:61:83:b8:dc:bf:e9:62:d7:0f:5f:
         0a:8a:bd:7b:59:97:e3:db:08:b6:6c:d8:03:a4:3b:1d:97:e2:
         28:b2:2b:91:0b:c7:42:f9:f9:bc:3c:84:7b:04:4f:a0:67:93:
         80:39:fc:0e:7c:73:7d:dc:27:11:19:db:84:e9:12:7e:d6:8e:
         07:9a:20:e1:2d:b9:f9:51:87:0e:ed:cc:42:1a:e1:27:58:89:
         80:f5:e4:90:42:5e:01:1a:5b:8d:d2:0f:3e:fc:f8:3a:92:2d:
         0c:5e:57:35:72:32:a2:17:ac:08:4e:45:96:5e:1d:a6:06:6d:
         47:47:c2:46:5c:a6:44:5e:66:70:6a:80:e0:30:0e:2c:8f:8f:
         6f:c3:66:d0:ef:e1:ca:26:f3:9e:3f:86:0f:30:ad:ce:1e:9a:
         b5:f7:22:49:71:95:35:22:c6:71:55:7d:56:5a:0f:78:c9:03:
         e0:37:4d:de:d6:4e:cb:6e:5e:35:2c:0d:b3:c9:ed:8f:f3:fa:
         17:bf:70:d8:dc:fe:b5:94:1b:4a:f6:d2:be:40:c0:3e:77:fa:
         21:7a:94:c9:78:28:d1:38:04:ce:27:6e:fc:b1:17:eb:32:c4:
         8c:5b:ad:f4:9c:59:7f:1d:3b:8f:eb:3d:76:94:c9:21:ff:88:
         14:b9:a1:c1
-----BEGIN CERTIFICATE-----
MIIDrDCCApSgAwIBAgIJANjT46bL481pMA0GCSqGSIb3DQEBCwUAMEExCzAJBgNV
BAYTAkZJMRAwDgYDVQQHDAdUdXVzdWxhMQ4wDAYDVQQKDAV3MS5maTEQMA4GA1UE
AwwHUm9vdCBDQTAeFw0yMTA4MjQwMDUxNTlaFw0yMjA4MjQwMDUxNTlaMDQxCzAJ
BgNVBAYTAkZJMQ4wDAYDVQQKDAV3MS5maTEVMBMGA1UEAwwMc2VydmVyLncxLmZp
MIIBIjANBgkqhkiG9w0BAQEFAAOCAQ8AMIIBCgKCAQEA/Q5ezRksakGD2SwONs0J
sI+yyYzI0gM4blS8Q+7O+Fmx6T9t1F7jxXMZPQu8KdfQbnUANfz3ZbG2D8sGSc+p
Tj3CZEsYJApwuG5U3JA/bBj9toirN9yLS7Xh/+27RQWj8KpRK/F5Bn8vzV385oqv
G7l7ykN1AR2OLdkRE4b7PEtgpClJ49IgIMtcDZzSnDAhEbyzdN9ksLdn7mrfrz0Y
Arfc5VR1tWxAxLCKG8b9qx6579GDCQ1VuheITtC9z3M2fChL9qpI1Oj7Jdgdr8lo
c6xGrsvreTZXrcNwAhVt8KVDc6tyBLEWYHQOSsGPUigalX6r0AT2+hHaG9GZpE+e
7QIDAQABo4GzMIGwMAkGA1UdEwQCMAAwHQYDVR0OBBYEFHEmeh9ygZckEarAdfq/
MRBpSdDnMB8GA1UdIwQYMBaAFKT9uTkbgbOq64gd1IGptRFwzKfhMDUGCCsGAQUF
BwEBBCkwJzAlBggrBgEFBQcwAYYZaHR0cDovL3NlcnZlci53MS5maTo4ODg4LzAX
BgNVHREEEDAOggxzZXJ2ZXIudzEuZmkwEwYDVR0lBAwwCgYIKwYBBQUHAwEwDQYJ
KoZIhvcNAQELBQADggEBAHO6GXRC/egtYYO43L/pYtcPXwqKvXtZl+PbCLZs2AOk
Ox2X4iiyK5ELx0L5+bw8hHsET6Bnk4A5/A58c33cJxEZ24TpEn7WjgeaIOEtuflR
hw7tzEIa4SdYiYD15JBCXgEaW43SDz78+DqSLQxeVzVyMqIXrAhORZZeHaYGbUdH
wkZcpkReZnBqgOAwDiyPj2/DZtDv4com854/hg8wrc4emrX3IklxlTUixnFVfVZa
D3jJA+A3Td7WTstuXjUsDbPJ7Y/z+he/cNjc/rWUG0r20r5AwD53+iF6lMl4KNE4
BM4nbvyxF+syxIxbrfScWX8dO4/rPXaUySH/iBS5ocE=
-----END CERTIFICATE-----
