Certificate:
    Data:
        Version: 3 (0x2)
        Serial Number:
            d8:d3:e3:a6:cb:e3:cd:1e
        Signature Algorithm: sha256WithRSAEncryption
        Issuer: C=FI, O=w1.fi, CN=Root CA
        Validity
            Not Before: Aug 20 20:37:00 2021 GMT
            Not After : Aug 20 20:37:00 2022 GMT
        Subject: C=FI, O=w1.fi, CN=server.w1.fi
        Subject Public Key Info:
            Public Key Algorithm: rsaEncryption
                RSA Public-Key: (1024 bit)
                Modulus:
                    00:ba:a0:77:55:22:14:85:55:65:9b:64:2c:ad:ed:
                    9b:dd:65:31:c9:da:60:50:ce:38:d6:34:dc:e8:bc:
                    1b:9e:30:e7:12:e3:53:6c:c9:ed:48:03:79:81:69:
                    98:ce:8a:b8:77:47:36:45:cf:c6:e0:f1:7b:1e:71:
                    89:54:f7:01:cc:22:ad:a0:42:b1:a8:35:9e:60:aa:
                    3a:98:51:d0:ff:1f:ee:be:8d:0a:63:fb:a2:39:17:
                    f2:64:61:f6:65:02:32:79:74:e1:9f:d1:89:65:55:
                    a9:c3:20:9e:bf:69:56:b3:f7:4f:3f:a9:54:c2:da:
                    8f:3c:af:f2:75:54:fa:7e:81
                Exponent: 65537 (0x10001)
        X509v3 extensions:
            X509v3 Basic Constraints: 
                CA:FALSE
            X509v3 Subject Key Identifier: 
                31:4F:10:5C:67:9F:BE:4E:88:D6:DC:C5:AB:9E:12:88:86:69:02:4F
            X509v3 Authority Key Identifier: 
                keyid:B8:92:DE:FD:8A:18:B3:30:C3:9F:55:F3:33:5D:B4:C8:29:8A:41:14

            Authority Information Access: 
                OCSP - URI:http://server.w1.fi:8888/

            X509v3 Subject Alternative Name: 
                DNS:server.w1.fi
            X509v3 Extended Key Usage: 
                TLS Web Server Authentication
    Signature Algorithm: sha256WithRSAEncryption
         8d:5d:56:3d:3c:49:59:b4:05:9a:a3:43:33:cb:e3:a8:0d:8f:
         4f:76:59:34:eb:fc:60:3f:af:6d:4e:ed:f5:20:b4:dd:d2:da:
         0f:cd:21:33:e3:aa:e1:7d:f7:78:e4:54:58:6e:45:0e:fb:16:
         7e:3f:b6:92:b2:6c:00:9e:27:01:63:c9:7e:8b:e9:e6:43:2a:
         75:24:c2:fb:56:bb:88:12:ac:62:25:0f:a2:f8:17:d9:c6:a0:
         38:49:cc:1d:52:03:e7:2e:28:23:a5:4a:c0:9d:4f:62:77:53:
         43:a4:85:74:8b:51:ea:5e:40:c3:13:ac:8b:ee:7f:70:92:ce:
         96:ff
-----BEGIN CERTIFICATE-----
MIIClTCCAf6gAwIBAgIJANjT46bL480eMA0GCSqGSIb3DQEBCwUAMC8xCzAJBgNV
BAYTAkZJMQ4wDAYDVQQKDAV3MS5maTEQMA4GA1UEAwwHUm9vdCBDQTAeFw0yMTA4
MjAyMDM3MDBaFw0yMjA4MjAyMDM3MDBaMDQxCzAJBgNVBAYTAkZJMQ4wDAYDVQQK
DAV3MS5maTEVMBMGA1UEAwwMc2VydmVyLncxLmZpMIGfMA0GCSqGSIb3DQEBAQUA
A4GNADCBiQKBgQC6oHdVIhSFVWWbZCyt7ZvdZTHJ2mBQzjjWNNzovBueMOcS41Ns
ye1IA3mBaZjOirh3RzZFz8bg8XsecYlU9wHMIq2gQrGoNZ5gqjqYUdD/H+6+jQpj
+6I5F/JkYfZlAjJ5dOGf0YllVanDIJ6/aVaz908/qVTC2o88r/J1VPp+gQIDAQAB
o4GzMIGwMAkGA1UdEwQCMAAwHQYDVR0OBBYEFDFPEFxnn75OiNbcxaueEoiGaQJP
MB8GA1UdIwQYMBaAFLiS3v2KGLMww59V8zNdtMgpikEUMDUGCCsGAQUFBwEBBCkw
JzAlBggrBgEFBQcwAYYZaHR0cDovL3NlcnZlci53MS5maTo4ODg4LzAXBgNVHREE
EDAOggxzZXJ2ZXIudzEuZmkwEwYDVR0lBAwwCgYIKwYBBQUHAwEwDQYJKoZIhvcN
AQELBQADgYEAjV1WPTxJWbQFmqNDM8vjqA2PT3ZZNOv8YD+vbU7t9SC03dLaD80h
M+Oq4X33eORUWG5FDvsWfj+2krJsAJ4nAWPJfovp5kMqdSTC+1a7iBKsYiUPovgX
2cagOEnMHVID5y4oI6VKwJ1PYndTQ6SFdItR6l5AwxOsi+5/cJLOlv8=
-----END CERTIFICATE-----
