Certificate:
    Data:
        Version: 3 (0x2)
        Serial Number:
            d8:d3:e3:a6:cb:e3:cd:71
        Signature Algorithm: sha256WithRSAEncryption
        Issuer: C=FI, L=Tuusula, O=w1.fi, CN=Root CA
        Validity
            Not Before: Aug 24 00:51:59 2021 GMT
            Not After : Aug 24 00:51:59 2022 GMT
        Subject: C=FI, O=w1.fi, CN=Test User
        Subject Public Key Info:
            Public Key Algorithm: rsaEncryption
                RSA Public-Key: (2048 bit)
                Modulus:
                    00:bc:24:08:d9:07:6d:19:0e:94:5c:6b:d9:8a:84:
                    1b:03:22:e2:1a:06:42:d3:0b:60:8d:5f:31:04:06:
                    fa:a2:40:6a:0c:24:29:58:cd:83:bf:3a:9d:7f:37:
                    0d:4d:27:5d:d5:57:57:1c:f3:be:75:3f:3a:4c:44:
                    6f:02:2f:5b:8b:2c:b0:5c:47:29:19:31:08:d1:28:
                    f5:1e:9c:5b:9c:b7:e7:6b:40:35:10:3e:7f:66:67:
                    16:a1:4e:68:8a:71:cc:32:58:e3:08:87:a2:2a:07:
                    2d:7f:73:f6:43:e5:7f:f4:f6:74:ae:27:e8:d2:5c:
                    ae:9b:82:d9:a5:2a:72:76:84:2f:e3:62:aa:41:1e:
                    de:33:b7:64:f8:79:6f:fa:09:b5:bc:b0:8c:cd:34:
                    82:2d:c4:10:55:89:ea:6c:38:92:fe:61:d6:64:84:
                    04:d4:0a:37:32:37:8d:c3:55:d1:fc:ab:b8:55:06:
                    a9:00:4f:31:e2:42:f1:e7:b4:2e:9c:45:0d:dc:a9:
                    f9:ad:b2:77:c1:f0:b1:c3:a2:5a:26:90:bd:19:2f:
                    46:1d:a5:21:3d:f0:35:62:94:c8:cf:33:3f:d8:a2:
                    5d:df:cc:58:00:08:8d:ed:b1:04:c5:2b:3f:1a:15:
                    f6:92:08:d4:f1:42:cd:6c:db:f2:ff:e0:6e:69:84:
                    d8:8b
                Exponent: 65537 (0x10001)
        X509v3 extensions:
            X509v3 Basic Constraints: 
                CA:FALSE
            X509v3 Subject Key Identifier: 
                FB:85:00:A8:DF:D6:0C:0E:A7:E3:39:61:D9:BE:CE:2A:EF:6D:28:D8
            X509v3 Authority Key Identifier: 
                keyid:A4:FD:B9:39:1B:81:B3:AA:EB:88:1D:D4:81:A9:B5:11:70:CC:A7:E1

            Authority Information Access: 
                OCSP - URI:http://server.w1.fi:8888/

            X509v3 Extended Key Usage: 
                TLS Web Client Authentication
    Signature Algorithm: sha256WithRSAEncryption
         1a:71:49:43:6f:7c:f7:04:6f:5b:d9:55:5b:30:5e:43:2d:76:
         fa:2c:3b:64:e4:c6:27:20:c1:d8:0c:f4:2c:71:d3:60:37:56:
         c0:a4:3c:3a:0c:e1:02:bf:ed:7d:2b:86:c0:79:db:38:0f:3b:
         ac:3d:0d:17:ee:6a:67:f3:ac:b4:9a:c3:b5:9a:51:29:6c:af:
         c9:92:87:5a:fc:7f:15:80:cb:3b:46:42:c0:d8:bf:83:7f:cb:
         20:97:4a:03:41:00:74:6e:33:db:87:67:94:fc:63:eb:86:92:
         28:cd:f4:69:cb:0d:ad:c7:ff:a9:7d:7f:50:38:d9:4f:2b:c7:
         91:f9:3f:ff:36:fd:3b:db:95:ba:5f:af:28:58:48:2e:a2:ed:
         58:98:b1:e9:fd:f3:8f:8c:5f:41:94:0b:79:4e:f6:f0:71:43:
         e3:2e:4a:dd:73:c1:86:95:2c:67:f8:7f:79:92:4f:70:3c:9e:
         10:c0:5f:11:eb:09:af:19:47:c6:af:d5:fe:eb:38:cb:96:f2:
         cf:27:07:1a:22:da:0e:b8:6b:c5:02:bf:16:1c:06:68:66:03:
         ad:0a:21:20:e7:3c:5c:cb:43:6b:38:ee:f3:a8:0d:90:0f:e8:
         8a:08:25:7a:4b:ac:ce:e6:04:ad:96:64:73:55:40:01:42:5b:
         3b:a0:b8:77
-----BEGIN CERTIFICATE-----
MIIDkDCCAnigAwIBAgIJANjT46bL481xMA0GCSqGSIb3DQEBCwUAMEExCzAJBgNV
BAYTAkZJMRAwDgYDVQQHDAdUdXVzdWxhMQ4wDAYDVQQKDAV3MS5maTEQMA4GA1UE
AwwHUm9vdCBDQTAeFw0yMTA4MjQwMDUxNTlaFw0yMjA4MjQwMDUxNTlaMDExCzAJ
BgNVBAYTAkZJMQ4wDAYDVQQKDAV3MS5maTESMBAGA1UEAwwJVGVzdCBVc2VyMIIB
IjANBgkqhkiG9w0BAQEFAAOCAQ8AMIIBCgKCAQEAvCQI2QdtGQ6UXGvZioQbAyLi
GgZC0wtgjV8xBAb6okBqDCQpWM2DvzqdfzcNTSdd1VdXHPO+dT86TERvAi9biyyw
XEcpGTEI0Sj1HpxbnLfna0A1ED5/ZmcWoU5oinHMMljjCIeiKgctf3P2Q+V/9PZ0
rifo0lyum4LZpSpydoQv42KqQR7eM7dk+Hlv+gm1vLCMzTSCLcQQVYnqbDiS/mHW
ZIQE1Ao3MjeNw1XR/Ku4VQapAE8x4kLx57QunEUN3Kn5rbJ3wfCxw6JaJpC9GS9G
HaUhPfA1YpTIzzM/2KJd38xYAAiN7bEExSs/GhX2kgjU8ULNbNvy/+BuaYTYiwID
AQABo4GaMIGXMAkGA1UdEwQCMAAwHQYDVR0OBBYEFPuFAKjf1gwOp+M5Ydm+zirv
bSjYMB8GA1UdIwQYMBaAFKT9uTkbgbOq64gd1IGptRFwzKfhMDUGCCsGAQUFBwEB
BCkwJzAlBggrBgEFBQcwAYYZaHR0cDovL3NlcnZlci53MS5maTo4ODg4LzATBgNV
HSUEDDAKBggrBgEFBQcDAjANBgkqhkiG9w0BAQsFAAOCAQEAGnFJQ2989wRvW9lV
WzBeQy12+iw7ZOTGJyDB2Az0LHHTYDdWwKQ8OgzhAr/tfSuGwHnbOA87rD0NF+5q
Z/OstJrDtZpRKWyvyZKHWvx/FYDLO0ZCwNi/g3/LIJdKA0EAdG4z24dnlPxj64aS
KM30acsNrcf/qX1/UDjZTyvHkfk//zb9O9uVul+vKFhILqLtWJix6f3zj4xfQZQL
eU728HFD4y5K3XPBhpUsZ/h/eZJPcDyeEMBfEesJrxlHxq/V/us4y5byzycHGiLa
DrhrxQK/FhwGaGYDrQohIOc8XMtDazju86gNkA/oigglekuszuYErZZkc1VAAUJb
O6C4dw==
-----END CERTIFICATE-----
